; ModuleID = 'source-C-CXX/27/400.c'
source_filename = "source-C-CXX/27/400.c"
target datalayout = "e-m:e-p270:32:32-p271:32:32-p272:64:64-i64:64-f80:128-n8:16:32:64-S128"
target triple = "x86_64-pc-linux-gnu"

@.str = private unnamed_addr constant [4 x i8] c"%d,\00", align 1
@.str.1 = private unnamed_addr constant [3 x i8] c"%d\00", align 1

; Function Attrs: nounwind sspstrong uwtable
define dso_local void @main() local_unnamed_addr #0 {
  %1 = alloca [1000 x i8], align 16
  %2 = alloca [1000 x i32], align 16
  %3 = getelementptr inbounds [1000 x i8], [1000 x i8]* %1, i64 0, i64 0
  call void @llvm.lifetime.start.p0i8(i64 1000, i8* nonnull %3) #5
  %4 = bitcast [1000 x i32]* %2 to i8*
  call void @llvm.lifetime.start.p0i8(i64 4000, i8* nonnull %4) #5
  %5 = call i32 (i8*, ...) bitcast (i32 (...)* @gets to i32 (i8*, ...)*)(i8* nonnull %3) #5
  %6 = call i64 @strlen(i8* noundef nonnull %3) #6
  %7 = icmp eq i64 %6, 0
  br i1 %7, label %77, label %8

8:                                                ; preds = %0
  %9 = and i64 %6, 1
  %10 = icmp eq i64 %6, 1
  br i1 %10, label %31, label %11

11:                                               ; preds = %8
  %12 = and i64 %6, -2
  br label %13

13:                                               ; preds = %85, %11
  %14 = phi i64 [ 0, %11 ], [ %87, %85 ]
  %15 = phi i32 [ 0, %11 ], [ %86, %85 ]
  %16 = phi i64 [ %12, %11 ], [ %88, %85 ]
  %17 = getelementptr inbounds [1000 x i8], [1000 x i8]* %1, i64 0, i64 %14
  %18 = load i8, i8* %17, align 2, !tbaa !5
  %19 = icmp eq i8 %18, 32
  br i1 %19, label %20, label %25

20:                                               ; preds = %13
  %21 = sext i32 %15 to i64
  %22 = getelementptr inbounds [1000 x i32], [1000 x i32]* %2, i64 0, i64 %21
  %23 = trunc i64 %14 to i32
  store i32 %23, i32* %22, align 4, !tbaa !8
  %24 = add nsw i32 %15, 1
  br label %25

25:                                               ; preds = %13, %20
  %26 = phi i32 [ %24, %20 ], [ %15, %13 ]
  %27 = or i64 %14, 1
  %28 = getelementptr inbounds [1000 x i8], [1000 x i8]* %1, i64 0, i64 %27
  %29 = load i8, i8* %28, align 1, !tbaa !5
  %30 = icmp eq i8 %29, 32
  br i1 %30, label %80, label %85

31:                                               ; preds = %85, %8
  %32 = phi i32 [ undef, %8 ], [ %86, %85 ]
  %33 = phi i64 [ 0, %8 ], [ %87, %85 ]
  %34 = phi i32 [ 0, %8 ], [ %86, %85 ]
  %35 = icmp eq i64 %9, 0
  br i1 %35, label %45, label %36

36:                                               ; preds = %31
  %37 = getelementptr inbounds [1000 x i8], [1000 x i8]* %1, i64 0, i64 %33
  %38 = load i8, i8* %37, align 1, !tbaa !5
  %39 = icmp eq i8 %38, 32
  br i1 %39, label %40, label %45

40:                                               ; preds = %36
  %41 = sext i32 %34 to i64
  %42 = getelementptr inbounds [1000 x i32], [1000 x i32]* %2, i64 0, i64 %41
  %43 = trunc i64 %33 to i32
  store i32 %43, i32* %42, align 4, !tbaa !8
  %44 = add nsw i32 %34, 1
  br label %45

45:                                               ; preds = %40, %36, %31
  %46 = phi i32 [ %32, %31 ], [ %44, %40 ], [ %34, %36 ]
  %47 = icmp eq i32 %46, 0
  br i1 %47, label %77, label %48

48:                                               ; preds = %45
  %49 = getelementptr inbounds [1000 x i32], [1000 x i32]* %2, i64 0, i64 0
  %50 = load i32, i32* %49, align 16, !tbaa !8
  %51 = call i32 (i8*, ...) @printf(i8* nonnull dereferenceable(1) getelementptr inbounds ([4 x i8], [4 x i8]* @.str, i64 0, i64 0), i32 %50)
  %52 = add i32 %46, -1
  %53 = icmp sgt i32 %46, 1
  br i1 %53, label %54, label %69

54:                                               ; preds = %48
  %55 = zext i32 %52 to i64
  br label %56

56:                                               ; preds = %54, %67
  %57 = phi i32 [ %50, %54 ], [ %61, %67 ]
  %58 = phi i64 [ 0, %54 ], [ %59, %67 ]
  %59 = add nuw nsw i64 %58, 1
  %60 = getelementptr inbounds [1000 x i32], [1000 x i32]* %2, i64 0, i64 %59
  %61 = load i32, i32* %60, align 4, !tbaa !8
  %62 = xor i32 %57, -1
  %63 = add i32 %61, %62
  %64 = icmp eq i32 %63, 0
  br i1 %64, label %67, label %65

65:                                               ; preds = %56
  %66 = call i32 (i8*, ...) @printf(i8* nonnull dereferenceable(1) getelementptr inbounds ([4 x i8], [4 x i8]* @.str, i64 0, i64 0), i32 %63)
  br label %67

67:                                               ; preds = %56, %65
  %68 = icmp eq i64 %59, %55
  br i1 %68, label %69, label %56, !llvm.loop !10

69:                                               ; preds = %67, %48
  %70 = call i64 @strlen(i8* noundef nonnull %3) #6
  %71 = sext i32 %52 to i64
  %72 = getelementptr inbounds [1000 x i32], [1000 x i32]* %2, i64 0, i64 %71
  %73 = load i32, i32* %72, align 4, !tbaa !8
  %74 = xor i32 %73, -1
  %75 = sext i32 %74 to i64
  %76 = add i64 %70, %75
  br label %77

77:                                               ; preds = %45, %0, %69
  %78 = phi i64 [ %76, %69 ], [ %6, %0 ], [ %6, %45 ]
  %79 = call i32 (i8*, ...) @printf(i8* nonnull dereferenceable(1) getelementptr inbounds ([3 x i8], [3 x i8]* @.str.1, i64 0, i64 0), i64 %78)
  call void @llvm.lifetime.end.p0i8(i64 4000, i8* nonnull %4) #5
  call void @llvm.lifetime.end.p0i8(i64 1000, i8* nonnull %3) #5
  ret void

80:                                               ; preds = %25
  %81 = sext i32 %26 to i64
  %82 = getelementptr inbounds [1000 x i32], [1000 x i32]* %2, i64 0, i64 %81
  %83 = trunc i64 %27 to i32
  store i32 %83, i32* %82, align 4, !tbaa !8
  %84 = add nsw i32 %26, 1
  br label %85

85:                                               ; preds = %80, %25
  %86 = phi i32 [ %84, %80 ], [ %26, %25 ]
  %87 = add nuw nsw i64 %14, 2
  %88 = add i64 %16, -2
  %89 = icmp eq i64 %88, 0
  br i1 %89, label %31, label %13, !llvm.loop !12
}

; Function Attrs: argmemonly mustprogress nofree nosync nounwind willreturn
declare void @llvm.lifetime.start.p0i8(i64 immarg, i8* nocapture) #1

declare i32 @gets(...) local_unnamed_addr #2

; Function Attrs: argmemonly mustprogress nofree nounwind readonly willreturn
declare i64 @strlen(i8* nocapture) local_unnamed_addr #3

; Function Attrs: nofree nounwind
declare noundef i32 @printf(i8* nocapture noundef readonly, ...) local_unnamed_addr #4

; Function Attrs: argmemonly mustprogress nofree nosync nounwind willreturn
declare void @llvm.lifetime.end.p0i8(i64 immarg, i8* nocapture) #1


!llvm.module.flags = !{!0, !1, !2, !3}
!llvm.ident = !{!4}

!0 = !{i32 1, !"wchar_size", i32 4}
!1 = !{i32 7, !"PIC Level", i32 2}
!2 = !{i32 7, !"PIE Level", i32 2}
!3 = !{i32 7, !"uwtable", i32 1}
!4 = !{!"clang version 13.0.0"}
!5 = !{!6, !6, i64 0}
!6 = !{!"omnipotent char", !7, i64 0}
!7 = !{!"Simple C/C++ TBAA"}
!8 = !{!9, !9, i64 0}
!9 = !{!"int", !6, i64 0}
!10 = distinct !{!10, !11}
!11 = !{!"llvm.loop.mustprogress"}
!12 = distinct !{!12, !11}
